target datalayout = "e-m:e-p270:32:32-p271:32:32-p272:64:64-i64:64-i128:128-f80:128-n8:16:32:64-S128"
target triple = "x86_64-pc-linux-gnu"

%struct.ident_t = type { i32, i32, i32, i32, ptr }

@1 = private unnamed_addr constant %struct.ident_t { i32 0, i32 514, i32 0, i32 22, ptr @0 }, align 8
@2 = private unnamed_addr constant %struct.ident_t { i32 0, i32 66, i32 0, i32 22, ptr @0 }, align 8

; Function Attrs: alwaysinline norecurse nounwind uwtable
define internal void @statevec_hadamardLocal.omp_outlined(ptr noalias noundef %0, ptr noalias noundef %1, ptr noundef nonnull align 8 dereferenceable(8) %2, ptr noundef nonnull align 8 dereferenceable(8) %3, ptr noundef nonnull align 8 dereferenceable(8) %4, ptr noundef nonnull align 8 dereferenceable(8) %5, ptr noundef nonnull align 8 dereferenceable(8) %6, ptr noundef nonnull align 8 dereferenceable(8) %7) #2 {
  %9 = alloca ptr, align 8
  %10 = alloca ptr, align 8
  %11 = alloca ptr, align 8
  %12 = alloca ptr, align 8
  %13 = alloca ptr, align 8
  %14 = alloca ptr, align 8
  %15 = alloca ptr, align 8
  %16 = alloca ptr, align 8
  %17 = alloca i64, align 8
  %18 = alloca i64, align 8
  %19 = alloca i64, align 8
  %20 = alloca double, align 8
  %21 = alloca double, align 8
  %22 = alloca double, align 8
  %23 = alloca double, align 8
  %24 = alloca i64, align 8
  %25 = alloca i64, align 8
  %26 = alloca i64, align 8
  %27 = alloca i64, align 8
  %28 = alloca i64, align 8
  %29 = alloca i64, align 8
  %30 = alloca i64, align 8
  %31 = alloca i32, align 4
  %32 = alloca i64, align 8
  store ptr %0, ptr %9, align 8, !tbaa !19
  store ptr %1, ptr %10, align 8, !tbaa !19
  store ptr %2, ptr %11, align 8, !tbaa !21
  store ptr %3, ptr %12, align 8, !tbaa !21
  store ptr %4, ptr %13, align 8, !tbaa !21
  store ptr %5, ptr %14, align 8, !tbaa !33
  store ptr %6, ptr %15, align 8, !tbaa !33
  store ptr %7, ptr %16, align 8, !tbaa !25
  %33 = load ptr, ptr %11, align 8, !tbaa !21
  %34 = load ptr, ptr %12, align 8, !tbaa !21
  %35 = load ptr, ptr %13, align 8, !tbaa !21
  %36 = load ptr, ptr %14, align 8, !tbaa !33
  %37 = load ptr, ptr %15, align 8, !tbaa !33
  %38 = load ptr, ptr %16, align 8, !tbaa !25
  call void @llvm.lifetime.start.p0(i64 8, ptr %17) #3
  call void @llvm.lifetime.start.p0(i64 8, ptr %18) #3
  call void @llvm.lifetime.start.p0(i64 8, ptr %19) #3
  call void @llvm.lifetime.start.p0(i64 8, ptr %20) #3
  call void @llvm.lifetime.start.p0(i64 8, ptr %21) #3
  call void @llvm.lifetime.start.p0(i64 8, ptr %22) #3
  call void @llvm.lifetime.start.p0(i64 8, ptr %23) #3
  call void @llvm.lifetime.start.p0(i64 8, ptr %24) #3
  call void @llvm.lifetime.start.p0(i64 8, ptr %25) #3
  %39 = load i64, ptr %33, align 8, !tbaa !4
  store i64 %39, ptr %25, align 8, !tbaa !4
  call void @llvm.lifetime.start.p0(i64 8, ptr %26) #3
  %40 = load i64, ptr %25, align 8, !tbaa !4
  %41 = sub nsw i64 %40, 0
  %42 = sdiv i64 %41, 1
  %43 = sub nsw i64 %42, 1
  store i64 %43, ptr %26, align 8, !tbaa !4
  call void @llvm.lifetime.start.p0(i64 8, ptr %27) #3
  store i64 0, ptr %27, align 8, !tbaa !4
  call void @llvm.lifetime.end.p0(i64 8, ptr %27) #3
  %44 = load i64, ptr %25, align 8, !tbaa !4
  %45 = icmp slt i64 0, %44
  br i1 %45, label %46, label %138

46:                                               ; preds = %8
  call void @llvm.lifetime.start.p0(i64 8, ptr %28) #3
  store i64 0, ptr %28, align 8, !tbaa !4
  call void @llvm.lifetime.start.p0(i64 8, ptr %29) #3
  %47 = load i64, ptr %26, align 8, !tbaa !4
  store i64 %47, ptr %29, align 8, !tbaa !4
  call void @llvm.lifetime.start.p0(i64 8, ptr %30) #3
  store i64 1, ptr %30, align 8, !tbaa !4
  call void @llvm.lifetime.start.p0(i64 4, ptr %31) #3
  store i32 0, ptr %31, align 4, !tbaa !8
  call void @llvm.lifetime.start.p0(i64 8, ptr %32) #3
  %48 = load ptr, ptr %9, align 8
  %49 = load i32, ptr %48, align 4, !tbaa !8
  call void @__kmpc_for_static_init_8(ptr @1, i32 %49, i32 34, ptr %31, ptr %28, ptr %29, ptr %30, i64 1, i64 1)
  %50 = load i64, ptr %29, align 8, !tbaa !4
  %51 = load i64, ptr %26, align 8, !tbaa !4
  %52 = icmp sgt i64 %50, %51
  br i1 %52, label %53, label %55

53:                                               ; preds = %46
  %54 = load i64, ptr %26, align 8, !tbaa !4
  br label %57

55:                                               ; preds = %46
  %56 = load i64, ptr %29, align 8, !tbaa !4
  br label %57

57:                                               ; preds = %55, %53
  %58 = phi i64 [ %54, %53 ], [ %56, %55 ]
  store i64 %58, ptr %29, align 8, !tbaa !4
  %59 = load i64, ptr %28, align 8, !tbaa !4
  store i64 %59, ptr %24, align 8, !tbaa !4
  br label %60

60:                                               ; preds = %131, %57
  %61 = load i64, ptr %24, align 8, !tbaa !4
  %62 = load i64, ptr %29, align 8, !tbaa !4
  %63 = icmp sle i64 %61, %62
  br i1 %63, label %65, label %64

64:                                               ; preds = %60
  br label %134

65:                                               ; preds = %60
  %66 = load i64, ptr %24, align 8, !tbaa !4
  %67 = mul nsw i64 %66, 1
  %68 = add nsw i64 0, %67
  store i64 %68, ptr %32, align 8, !tbaa !4
  %69 = load i64, ptr %32, align 8, !tbaa !4
  %70 = load i64, ptr %34, align 8, !tbaa !4
  %71 = sdiv i64 %69, %70
  store i64 %71, ptr %17, align 8, !tbaa !4
  %72 = load i64, ptr %17, align 8, !tbaa !4
  %73 = load i64, ptr %35, align 8, !tbaa !4
  %74 = mul nsw i64 %72, %73
  %75 = load i64, ptr %32, align 8, !tbaa !4
  %76 = load i64, ptr %34, align 8, !tbaa !4
  %77 = srem i64 %75, %76
  %78 = add nsw i64 %74, %77
  store i64 %78, ptr %18, align 8, !tbaa !4
  %79 = load i64, ptr %18, align 8, !tbaa !4
  %80 = load i64, ptr %34, align 8, !tbaa !4
  %81 = add nsw i64 %79, %80
  store i64 %81, ptr %19, align 8, !tbaa !4
  %82 = load ptr, ptr %36, align 8, !tbaa !25
  %83 = load i64, ptr %18, align 8, !tbaa !4
  %84 = getelementptr inbounds double, ptr %82, i64 %83
  %85 = load double, ptr %84, align 8, !tbaa !10
  store double %85, ptr %20, align 8, !tbaa !10
  %86 = load ptr, ptr %37, align 8, !tbaa !25
  %87 = load i64, ptr %18, align 8, !tbaa !4
  %88 = getelementptr inbounds double, ptr %86, i64 %87
  %89 = load double, ptr %88, align 8, !tbaa !10
  store double %89, ptr %21, align 8, !tbaa !10
  %90 = load ptr, ptr %36, align 8, !tbaa !25
  %91 = load i64, ptr %19, align 8, !tbaa !4
  %92 = getelementptr inbounds double, ptr %90, i64 %91
  %93 = load double, ptr %92, align 8, !tbaa !10
  store double %93, ptr %22, align 8, !tbaa !10
  %94 = load ptr, ptr %37, align 8, !tbaa !25
  %95 = load i64, ptr %19, align 8, !tbaa !4
  %96 = getelementptr inbounds double, ptr %94, i64 %95
  %97 = load double, ptr %96, align 8, !tbaa !10
  store double %97, ptr %23, align 8, !tbaa !10
  %98 = load double, ptr %38, align 8, !tbaa !10
  %99 = load double, ptr %20, align 8, !tbaa !10
  %100 = load double, ptr %22, align 8, !tbaa !10
  %101 = fadd double %99, %100
  %102 = fmul double %98, %101
  %103 = load ptr, ptr %36, align 8, !tbaa !25
  %104 = load i64, ptr %18, align 8, !tbaa !4
  %105 = getelementptr inbounds double, ptr %103, i64 %104
  store double %102, ptr %105, align 8, !tbaa !10
  %106 = load double, ptr %38, align 8, !tbaa !10
  %107 = load double, ptr %21, align 8, !tbaa !10
  %108 = load double, ptr %23, align 8, !tbaa !10
  %109 = fadd double %107, %108
  %110 = fmul double %106, %109
  %111 = load ptr, ptr %37, align 8, !tbaa !25
  %112 = load i64, ptr %18, align 8, !tbaa !4
  %113 = getelementptr inbounds double, ptr %111, i64 %112
  store double %110, ptr %113, align 8, !tbaa !10
  %114 = load double, ptr %38, align 8, !tbaa !10
  %115 = load double, ptr %20, align 8, !tbaa !10
  %116 = load double, ptr %22, align 8, !tbaa !10
  %117 = fsub double %115, %116
  %118 = fmul double %114, %117
  %119 = load ptr, ptr %36, align 8, !tbaa !25
  %120 = load i64, ptr %19, align 8, !tbaa !4
  %121 = getelementptr inbounds double, ptr %119, i64 %120
  store double %118, ptr %121, align 8, !tbaa !10
  %122 = load double, ptr %38, align 8, !tbaa !10
  %123 = load double, ptr %21, align 8, !tbaa !10
  %124 = load double, ptr %23, align 8, !tbaa !10
  %125 = fsub double %123, %124
  %126 = fmul double %122, %125
  %127 = load ptr, ptr %37, align 8, !tbaa !25
  %128 = load i64, ptr %19, align 8, !tbaa !4
  %129 = getelementptr inbounds double, ptr %127, i64 %128
  store double %126, ptr %129, align 8, !tbaa !10
  br label %130

130:                                              ; preds = %65
  br label %131

131:                                              ; preds = %130
  %132 = load i64, ptr %24, align 8, !tbaa !4
  %133 = add nsw i64 %132, 1
  store i64 %133, ptr %24, align 8, !tbaa !4
  br label %60

134:                                              ; preds = %64
  br label %135

135:                                              ; preds = %134
  %136 = load ptr, ptr %9, align 8
  %137 = load i32, ptr %136, align 4, !tbaa !8
  call void @__kmpc_for_static_fini(ptr @1, i32 %137)
  call void @llvm.lifetime.end.p0(i64 8, ptr %32) #3
  call void @llvm.lifetime.end.p0(i64 4, ptr %31) #3
  call void @llvm.lifetime.end.p0(i64 8, ptr %30) #3
  call void @llvm.lifetime.end.p0(i64 8, ptr %29) #3
  call void @llvm.lifetime.end.p0(i64 8, ptr %28) #3
  br label %138

138:                                              ; preds = %135, %8
  call void @llvm.lifetime.end.p0(i64 8, ptr %26) #3
  call void @llvm.lifetime.end.p0(i64 8, ptr %25) #3
  call void @llvm.lifetime.end.p0(i64 8, ptr %24) #3
  %139 = load ptr, ptr %9, align 8
  %140 = load i32, ptr %139, align 4, !tbaa !8
  call void @__kmpc_barrier(ptr @2, i32 %140)
  call void @llvm.lifetime.end.p0(i64 8, ptr %23) #3
  call void @llvm.lifetime.end.p0(i64 8, ptr %22) #3
  call void @llvm.lifetime.end.p0(i64 8, ptr %21) #3
  call void @llvm.lifetime.end.p0(i64 8, ptr %20) #3
  call void @llvm.lifetime.end.p0(i64 8, ptr %19) #3
  call void @llvm.lifetime.end.p0(i64 8, ptr %18) #3
  call void @llvm.lifetime.end.p0(i64 8, ptr %17) #3
  ret void
}