; Function Attrs: alwaysinline norecurse nounwind uwtable
define internal void @statevec_hadamardLocal.omp_outlined(ptr noalias noundef readonly captures(none) %0, ptr noalias readnone captures(none) %1, ptr noundef nonnull readonly align 8 captures(none) dereferenceable(8) %2, ptr noundef nonnull readonly align 8 captures(none) dereferenceable(8) %3, ptr noundef nonnull readonly align 8 captures(none) dereferenceable(8) %4, ptr noundef nonnull readonly align 8 captures(none) dereferenceable(8) %5, ptr noundef nonnull readonly align 8 captures(none) dereferenceable(8) %6, ptr noundef nonnull readonly align 8 captures(none) dereferenceable(8) %7) #3 {
  %9 = alloca i64, align 8
  %10 = alloca i64, align 8
  %11 = alloca i64, align 8
  %12 = alloca i32, align 4
  %13 = load i64, ptr %2, align 8, !tbaa !16
  %14 = icmp sgt i64 %13, 0
  %.pre = load i32, ptr %0, align 4, !tbaa !18
  br i1 %14, label %15, label %51

15:                                               ; preds = %8
  %16 = add nsw i64 %13, -1
  call void @llvm.lifetime.start.p0(i64 8, ptr nonnull %9) #4
  store i64 0, ptr %9, align 8, !tbaa !16
  call void @llvm.lifetime.start.p0(i64 8, ptr nonnull %10) #4
  store i64 %16, ptr %10, align 8, !tbaa !16
  call void @llvm.lifetime.start.p0(i64 8, ptr nonnull %11) #4
  store i64 1, ptr %11, align 8, !tbaa !16
  call void @llvm.lifetime.start.p0(i64 4, ptr nonnull %12) #4
  store i32 0, ptr %12, align 4, !tbaa !18
  call void @__kmpc_for_static_init_8(ptr nonnull @1, i32 %.pre, i32 34, ptr nonnull %12, ptr nonnull %9, ptr nonnull %10, ptr nonnull %11, i64 1, i64 1)
  %17 = load i64, ptr %10, align 8, !tbaa !16
  %18 = call i64 @llvm.smin.i64(i64 %17, i64 %16)
  store i64 %18, ptr %10, align 8, !tbaa !16
  %19 = load i64, ptr %9, align 8, !tbaa !16
  %.not36 = icmp sgt i64 %19, %18
  br i1 %.not36, label %._crit_edge, label %.lr.ph

.lr.ph:                                           ; preds = %15
  %20 = load i64, ptr %3, align 8, !tbaa !16
  %21 = load i64, ptr %4, align 8, !tbaa !16
  %22 = load ptr, ptr %5, align 8, !tbaa !26
  %23 = load ptr, ptr %6, align 8, !tbaa !26
  br label %24

24:                                               ; preds = %.lr.ph, %24
  %.037 = phi i64 [ %19, %.lr.ph ], [ %50, %24 ]
  %25 = sdiv i64 %.037, %20
  %26 = mul nsw i64 %21, %25
  %27 = srem i64 %.037, %20
  %28 = add nsw i64 %26, %27
  %29 = add nsw i64 %28, %20
  %30 = getelementptr inbounds double, ptr %22, i64 %28
  %31 = load double, ptr %30, align 8, !tbaa !4
  %32 = getelementptr inbounds double, ptr %23, i64 %28
  %33 = load double, ptr %32, align 8, !tbaa !4
  %34 = getelementptr inbounds double, ptr %22, i64 %29
  %35 = load double, ptr %34, align 8, !tbaa !4
  %36 = getelementptr inbounds double, ptr %23, i64 %29
  %37 = load double, ptr %36, align 8, !tbaa !4
  %38 = load double, ptr %7, align 8, !tbaa !4
  %39 = fadd double %31, %35
  %40 = fmul double %39, %38
  store double %40, ptr %30, align 8, !tbaa !4
  %41 = load double, ptr %7, align 8, !tbaa !4
  %42 = fadd double %33, %37
  %43 = fmul double %42, %41
  store double %43, ptr %32, align 8, !tbaa !4
  %44 = load double, ptr %7, align 8, !tbaa !4
  %45 = fsub double %31, %35
  %46 = fmul double %45, %44
  store double %46, ptr %34, align 8, !tbaa !4
  %47 = load double, ptr %7, align 8, !tbaa !4
  %48 = fsub double %33, %37
  %49 = fmul double %48, %47
  store double %49, ptr %36, align 8, !tbaa !4
  %50 = add i64 %.037, 1
  %exitcond.not = icmp eq i64 %.037, %18
  br i1 %exitcond.not, label %._crit_edge, label %24

._crit_edge:                                      ; preds = %24, %15
  call void @__kmpc_for_static_fini(ptr nonnull @1, i32 %.pre)
  call void @llvm.lifetime.end.p0(i64 4, ptr nonnull %12) #4
  call void @llvm.lifetime.end.p0(i64 8, ptr nonnull %11) #4
  call void @llvm.lifetime.end.p0(i64 8, ptr nonnull %10) #4
  call void @llvm.lifetime.end.p0(i64 8, ptr nonnull %9) #4
  br label %51

51:                                               ; preds = %._crit_edge, %8
  call void @__kmpc_barrier(ptr nonnull @2, i32 %.pre)
  ret void
}